target datalayout = "e-m:e-p270:32:32-p271:32:32-p272:64:64-i64:64-i128:128-f80:128-n8:16:32:64-S128"
target triple = "x86_64-pc-linux-gnu"

@.str = private unnamed_addr constant [14 x i8] c"clock_gettime\00", align 1

; Function Attrs: nounwind sspstrong uwtable
define dso_local void @rb_timespec_now(ptr noundef nonnull %0) #0 {
  %2 = alloca ptr, align 8
  store ptr %0, ptr %2, align 8, !tbaa !13
  %3 = load ptr, ptr %2, align 8, !tbaa !13
  %4 = call i32 @clock_gettime(i32 noundef 0, ptr noundef %3) #22
  %5 = icmp eq i32 %4, -1
  br i1 %5, label %6, label %7

6:                                                ; preds = %1
  call void @rb_sys_fail(ptr noundef @.str) #23
  unreachable

7:                                                ; preds = %1
  ret void
}