; Function Attrs: nounwind sspstrong uwtable
define dso_local void @rb_timespec_now(ptr noundef nonnull %0) local_unnamed_addr #1 {
  %2 = tail call i32 @clock_gettime(i32 noundef 0, ptr noundef nonnull %0) #21
  %3 = icmp eq i32 %2, -1
  br i1 %3, label %4, label %5

4:                                                ; preds = %1
  tail call void @rb_sys_fail(ptr noundef nonnull @.str) #22
  unreachable

5:                                                ; preds = %1
  ret void
}